target datalayout = "e-m:e-p270:32:32-p271:32:32-p272:64:64-i64:64-i128:128-f80:128-n8:16:32:64-S128"
target triple = "x86_64-pc-linux-gnu"

%struct.hwloc_topology = type { i32, i32, i32, ptr, ptr, i64, [20 x i32], [20 x i32], i64, i64, i32, ptr, i64, ptr, i64, [6 x %struct.hwloc_special_level_s], ptr, ptr, %struct.hwloc_binding_hooks, %struct.hwloc_topology_support, %struct.hwloc_infos_s, ptr, ptr, i32, ptr, ptr, i32, i32, ptr, i32, i32, ptr, i32, i32, i32, [5 x float], i32, ptr, ptr, i32, i32, ptr, i32, %struct.hwloc_numanode_attr_s, i32, i32, ptr, i64, i32, ptr, ptr, ptr }
%struct.hwloc_special_level_s = type { i32, ptr, ptr, ptr }
%struct.hwloc_binding_hooks = type { ptr, ptr, ptr, ptr, ptr, ptr, ptr, ptr, ptr, ptr, ptr, ptr, ptr, ptr, ptr, ptr, ptr, ptr, ptr, ptr, ptr, ptr, ptr, ptr }
%struct.hwloc_topology_support = type { ptr, ptr, ptr, ptr }
%struct.hwloc_infos_s = type { ptr, i32, i32 }
%struct.hwloc_numanode_attr_s = type { i64, i32, ptr }
%struct.hwloc_obj = type { i32, ptr, i32, ptr, i64, ptr, i32, i32, ptr, ptr, ptr, i32, ptr, ptr, i32, ptr, ptr, ptr, i32, i32, ptr, i32, ptr, i32, ptr, ptr, ptr, ptr, ptr, %struct.hwloc_infos_s, ptr, i64 }
%struct.hwloc_cache_attr_s = type { i64, i32, i32, i32, i32 }

@.str.20 = private unnamed_addr constant [34 x i8] c"NUMAnodes with identical nodesets\00", align 1

; Function Attrs: nounwind uwtable
define hidden void @hwloc_free_unlinked_object(ptr noundef %0) #0 {
  %2 = alloca ptr, align 8
  store ptr %0, ptr %2, align 8, !tbaa !37
  %3 = load ptr, ptr %2, align 8, !tbaa !37
  call void @hwloc__free_object_contents(ptr noundef %3)
  %4 = load ptr, ptr %2, align 8, !tbaa !37
  call void @free(ptr noundef %4) #14
  ret void
}

; Function Attrs: nounwind uwtable
define internal ptr @hwloc___attach_memory_object_by_nodeset(ptr noundef %0, ptr noundef %1, ptr noundef %2, ptr noundef %3) #0 {
  %5 = alloca ptr, align 8
  %6 = alloca ptr, align 8
  %7 = alloca ptr, align 8
  %8 = alloca ptr, align 8
  %9 = alloca ptr, align 8
  %10 = alloca ptr, align 8
  %11 = alloca i32, align 4
  %12 = alloca ptr, align 8
  %13 = alloca i32, align 4
  %14 = alloca i32, align 4
  store ptr %0, ptr %6, align 8, !tbaa !3
  store ptr %1, ptr %7, align 8, !tbaa !37
  store ptr %2, ptr %8, align 8, !tbaa !37
  store ptr %3, ptr %9, align 8, !tbaa !34
  call void @llvm.lifetime.start.p0(i64 8, ptr %10) #14
  %15 = load ptr, ptr %7, align 8, !tbaa !37
  %16 = getelementptr inbounds nuw %struct.hwloc_obj, ptr %15, i32 0, i32 20
  store ptr %16, ptr %10, align 8, !tbaa !52
  call void @llvm.lifetime.start.p0(i64 4, ptr %11) #14
  %17 = load ptr, ptr %8, align 8, !tbaa !37
  %18 = getelementptr inbounds nuw %struct.hwloc_obj, ptr %17, i32 0, i32 27
  %19 = load ptr, ptr %18, align 8, !tbaa !76
  %20 = call i32 @hwloc_bitmap_first(ptr noundef %19) #15
  store i32 %20, ptr %11, align 4, !tbaa !33
  br label %21

21:                                               ; preds = %137, %4
  %22 = load ptr, ptr %10, align 8, !tbaa !52
  %23 = load ptr, ptr %22, align 8, !tbaa !37
  %24 = icmp ne ptr %23, null
  br i1 %24, label %25, label %138

25:                                               ; preds = %21
  call void @llvm.lifetime.start.p0(i64 8, ptr %12) #14
  %26 = load ptr, ptr %10, align 8, !tbaa !52
  %27 = load ptr, ptr %26, align 8, !tbaa !37
  store ptr %27, ptr %12, align 8, !tbaa !37
  call void @llvm.lifetime.start.p0(i64 4, ptr %13) #14
  %28 = load ptr, ptr %12, align 8, !tbaa !37
  %29 = getelementptr inbounds nuw %struct.hwloc_obj, ptr %28, i32 0, i32 27
  %30 = load ptr, ptr %29, align 8, !tbaa !76
  %31 = call i32 @hwloc_bitmap_first(ptr noundef %30) #15
  store i32 %31, ptr %13, align 4, !tbaa !33
  %32 = load i32, ptr %11, align 4, !tbaa !33
  %33 = load i32, ptr %13, align 4, !tbaa !33
  %34 = icmp ult i32 %32, %33
  br i1 %34, label %35, label %49

35:                                               ; preds = %25
  %36 = load ptr, ptr %12, align 8, !tbaa !37
  %37 = load ptr, ptr %8, align 8, !tbaa !37
  %38 = getelementptr inbounds nuw %struct.hwloc_obj, ptr %37, i32 0, i32 12
  store ptr %36, ptr %38, align 8, !tbaa !82
  %39 = load ptr, ptr %8, align 8, !tbaa !37
  %40 = load ptr, ptr %10, align 8, !tbaa !52
  store ptr %39, ptr %40, align 8, !tbaa !37
  %41 = load ptr, ptr %8, align 8, !tbaa !37
  %42 = getelementptr inbounds nuw %struct.hwloc_obj, ptr %41, i32 0, i32 20
  store ptr null, ptr %42, align 8, !tbaa !132
  %43 = load ptr, ptr %7, align 8, !tbaa !37
  %44 = load ptr, ptr %8, align 8, !tbaa !37
  %45 = getelementptr inbounds nuw %struct.hwloc_obj, ptr %44, i32 0, i32 10
  store ptr %43, ptr %45, align 8, !tbaa !144
  %46 = load ptr, ptr %6, align 8, !tbaa !3
  %47 = getelementptr inbounds nuw %struct.hwloc_topology, ptr %46, i32 0, i32 9
  store i64 1, ptr %47, align 8, !tbaa !107
  %48 = load ptr, ptr %8, align 8, !tbaa !37
  store ptr %48, ptr %5, align 8
  store i32 1, ptr %14, align 4
  br label %135

49:                                               ; preds = %25
  %50 = load i32, ptr %11, align 4, !tbaa !33
  %51 = load i32, ptr %13, align 4, !tbaa !33
  %52 = icmp eq i32 %50, %51
  br i1 %52, label %53, label %132

53:                                               ; preds = %49
  %54 = load ptr, ptr %8, align 8, !tbaa !37
  %55 = getelementptr inbounds nuw %struct.hwloc_obj, ptr %54, i32 0, i32 0
  %56 = load i32, ptr %55, align 8, !tbaa !46
  %57 = icmp eq i32 %56, 14
  br i1 %57, label %58, label %73

58:                                               ; preds = %53
  %59 = load ptr, ptr %12, align 8, !tbaa !37
  %60 = getelementptr inbounds nuw %struct.hwloc_obj, ptr %59, i32 0, i32 0
  %61 = load i32, ptr %60, align 8, !tbaa !46
  %62 = icmp eq i32 %61, 14
  br i1 %62, label %63, label %67

63:                                               ; preds = %58
  %64 = load ptr, ptr %8, align 8, !tbaa !37
  %65 = load ptr, ptr %12, align 8, !tbaa !37
  %66 = load ptr, ptr %9, align 8, !tbaa !34
  call void @report_insert_error(ptr noundef %64, ptr noundef %65, ptr noundef @.str.20, ptr noundef %66)
  store ptr null, ptr %5, align 8
  store i32 1, ptr %14, align 4
  br label %135

67:                                               ; preds = %58
  %68 = load ptr, ptr %6, align 8, !tbaa !3
  %69 = load ptr, ptr %12, align 8, !tbaa !37
  %70 = load ptr, ptr %8, align 8, !tbaa !37
  %71 = load ptr, ptr %9, align 8, !tbaa !34
  %72 = call ptr @hwloc___attach_memory_object_by_nodeset(ptr noundef %68, ptr noundef %69, ptr noundef %70, ptr noundef %71)
  store ptr %72, ptr %5, align 8
  store i32 1, ptr %14, align 4
  br label %135

73:                                               ; preds = %53
  %74 = load ptr, ptr %12, align 8, !tbaa !37
  %75 = getelementptr inbounds nuw %struct.hwloc_obj, ptr %74, i32 0, i32 0
  %76 = load i32, ptr %75, align 8, !tbaa !46
  %77 = icmp eq i32 %76, 15
  br i1 %77, label %78, label %110

78:                                               ; preds = %73
  %79 = load ptr, ptr %12, align 8, !tbaa !37
  %80 = getelementptr inbounds nuw %struct.hwloc_obj, ptr %79, i32 0, i32 5
  %81 = load ptr, ptr %80, align 8, !tbaa !50
  %82 = getelementptr inbounds nuw %struct.hwloc_cache_attr_s, ptr %81, i32 0, i32 1
  %83 = load i32, ptr %82, align 8, !tbaa !73
  %84 = load ptr, ptr %8, align 8, !tbaa !37
  %85 = getelementptr inbounds nuw %struct.hwloc_obj, ptr %84, i32 0, i32 5
  %86 = load ptr, ptr %85, align 8, !tbaa !50
  %87 = getelementptr inbounds nuw %struct.hwloc_cache_attr_s, ptr %86, i32 0, i32 1
  %88 = load i32, ptr %87, align 8, !tbaa !73
  %89 = icmp eq i32 %83, %88
  br i1 %89, label %90, label %91

90:                                               ; preds = %78
  store ptr null, ptr %5, align 8
  store i32 1, ptr %14, align 4
  br label %135

91:                                               ; preds = %78
  %92 = load ptr, ptr %12, align 8, !tbaa !37
  %93 = getelementptr inbounds nuw %struct.hwloc_obj, ptr %92, i32 0, i32 5
  %94 = load ptr, ptr %93, align 8, !tbaa !50
  %95 = getelementptr inbounds nuw %struct.hwloc_cache_attr_s, ptr %94, i32 0, i32 1
  %96 = load i32, ptr %95, align 8, !tbaa !73
  %97 = load ptr, ptr %8, align 8, !tbaa !37
  %98 = getelementptr inbounds nuw %struct.hwloc_obj, ptr %97, i32 0, i32 5
  %99 = load ptr, ptr %98, align 8, !tbaa !50
  %100 = getelementptr inbounds nuw %struct.hwloc_cache_attr_s, ptr %99, i32 0, i32 1
  %101 = load i32, ptr %100, align 8, !tbaa !73
  %102 = icmp ugt i32 %96, %101
  br i1 %102, label %103, label %109

103:                                              ; preds = %91
  %104 = load ptr, ptr %6, align 8, !tbaa !3
  %105 = load ptr, ptr %12, align 8, !tbaa !37
  %106 = load ptr, ptr %8, align 8, !tbaa !37
  %107 = load ptr, ptr %9, align 8, !tbaa !34
  %108 = call ptr @hwloc___attach_memory_object_by_nodeset(ptr noundef %104, ptr noundef %105, ptr noundef %106, ptr noundef %107)
  store ptr %108, ptr %5, align 8
  store i32 1, ptr %14, align 4
  br label %135

109:                                              ; preds = %91
  br label %110

110:                                              ; preds = %109, %73
  %111 = load ptr, ptr %12, align 8, !tbaa !37
  %112 = getelementptr inbounds nuw %struct.hwloc_obj, ptr %111, i32 0, i32 12
  %113 = load ptr, ptr %112, align 8, !tbaa !82
  %114 = load ptr, ptr %8, align 8, !tbaa !37
  %115 = getelementptr inbounds nuw %struct.hwloc_obj, ptr %114, i32 0, i32 12
  store ptr %113, ptr %115, align 8, !tbaa !82
  %116 = load ptr, ptr %12, align 8, !tbaa !37
  %117 = getelementptr inbounds nuw %struct.hwloc_obj, ptr %116, i32 0, i32 12
  store ptr null, ptr %117, align 8, !tbaa !82
  %118 = load ptr, ptr %12, align 8, !tbaa !37
  %119 = load ptr, ptr %8, align 8, !tbaa !37
  %120 = getelementptr inbounds nuw %struct.hwloc_obj, ptr %119, i32 0, i32 20
  store ptr %118, ptr %120, align 8, !tbaa !132
  %121 = load ptr, ptr %8, align 8, !tbaa !37
  %122 = load ptr, ptr %12, align 8, !tbaa !37
  %123 = getelementptr inbounds nuw %struct.hwloc_obj, ptr %122, i32 0, i32 10
  store ptr %121, ptr %123, align 8, !tbaa !144
  %124 = load ptr, ptr %8, align 8, !tbaa !37
  %125 = load ptr, ptr %10, align 8, !tbaa !52
  store ptr %124, ptr %125, align 8, !tbaa !37
  %126 = load ptr, ptr %7, align 8, !tbaa !37
  %127 = load ptr, ptr %8, align 8, !tbaa !37
  %128 = getelementptr inbounds nuw %struct.hwloc_obj, ptr %127, i32 0, i32 10
  store ptr %126, ptr %128, align 8, !tbaa !144
  %129 = load ptr, ptr %6, align 8, !tbaa !3
  %130 = getelementptr inbounds nuw %struct.hwloc_topology, ptr %129, i32 0, i32 9
  store i64 1, ptr %130, align 8, !tbaa !107
  %131 = load ptr, ptr %8, align 8, !tbaa !37
  store ptr %131, ptr %5, align 8
  store i32 1, ptr %14, align 4
  br label %135

132:                                              ; preds = %49
  %133 = load ptr, ptr %12, align 8, !tbaa !37
  %134 = getelementptr inbounds nuw %struct.hwloc_obj, ptr %133, i32 0, i32 12
  store ptr %134, ptr %10, align 8, !tbaa !52
  store i32 0, ptr %14, align 4
  br label %135

135:                                              ; preds = %132, %110, %103, %90, %67, %63, %35
  call void @llvm.lifetime.end.p0(i64 4, ptr %13) #14
  call void @llvm.lifetime.end.p0(i64 8, ptr %12) #14
  %136 = load i32, ptr %14, align 4
  switch i32 %136, label %151 [
    i32 0, label %137
  ]

137:                                              ; preds = %135
  br label %21, !llvm.loop !145

138:                                              ; preds = %21
  %139 = load ptr, ptr %8, align 8, !tbaa !37
  %140 = getelementptr inbounds nuw %struct.hwloc_obj, ptr %139, i32 0, i32 12
  store ptr null, ptr %140, align 8, !tbaa !82
  %141 = load ptr, ptr %8, align 8, !tbaa !37
  %142 = load ptr, ptr %10, align 8, !tbaa !52
  store ptr %141, ptr %142, align 8, !tbaa !37
  %143 = load ptr, ptr %8, align 8, !tbaa !37
  %144 = getelementptr inbounds nuw %struct.hwloc_obj, ptr %143, i32 0, i32 20
  store ptr null, ptr %144, align 8, !tbaa !132
  %145 = load ptr, ptr %7, align 8, !tbaa !37
  %146 = load ptr, ptr %8, align 8, !tbaa !37
  %147 = getelementptr inbounds nuw %struct.hwloc_obj, ptr %146, i32 0, i32 10
  store ptr %145, ptr %147, align 8, !tbaa !144
  %148 = load ptr, ptr %6, align 8, !tbaa !3
  %149 = getelementptr inbounds nuw %struct.hwloc_topology, ptr %148, i32 0, i32 9
  store i64 1, ptr %149, align 8, !tbaa !107
  %150 = load ptr, ptr %8, align 8, !tbaa !37
  store ptr %150, ptr %5, align 8
  store i32 1, ptr %14, align 4
  br label %151

151:                                              ; preds = %138, %135
  call void @llvm.lifetime.end.p0(i64 4, ptr %11) #14
  call void @llvm.lifetime.end.p0(i64 8, ptr %10) #14
  %152 = load ptr, ptr %5, align 8
  ret ptr %152
}

; Function Attrs: nounwind uwtable
define hidden ptr @hwloc__attach_memory_object(ptr noundef %0, ptr noundef %1, ptr noundef %2, ptr noundef %3) #0 {
  %5 = alloca ptr, align 8
  %6 = alloca ptr, align 8
  %7 = alloca ptr, align 8
  %8 = alloca ptr, align 8
  %9 = alloca ptr, align 8
  %10 = alloca ptr, align 8
  %11 = alloca i32, align 4
  store ptr %0, ptr %6, align 8, !tbaa !3
  store ptr %1, ptr %7, align 8, !tbaa !37
  store ptr %2, ptr %8, align 8, !tbaa !37
  store ptr %3, ptr %9, align 8, !tbaa !34
  call void @llvm.lifetime.start.p0(i64 8, ptr %10) #14
  %12 = load ptr, ptr %8, align 8, !tbaa !37
  %13 = getelementptr inbounds nuw %struct.hwloc_obj, ptr %12, i32 0, i32 27
  %14 = load ptr, ptr %13, align 8, !tbaa !76
  %15 = icmp ne ptr %14, null
  br i1 %15, label %16, label %22

16:                                               ; preds = %4
  %17 = load ptr, ptr %8, align 8, !tbaa !37
  %18 = getelementptr inbounds nuw %struct.hwloc_obj, ptr %17, i32 0, i32 27
  %19 = load ptr, ptr %18, align 8, !tbaa !76
  %20 = call i32 @hwloc_bitmap_iszero(ptr noundef %19) #15
  %21 = icmp ne i32 %20, 0
  br i1 %21, label %22, label %23

22:                                               ; preds = %16, %4
  store ptr null, ptr %5, align 8
  store i32 1, ptr %11, align 4
  br label %95

23:                                               ; preds = %16
  %24 = load ptr, ptr %8, align 8, !tbaa !37
  %25 = getelementptr inbounds nuw %struct.hwloc_obj, ptr %24, i32 0, i32 28
  %26 = load ptr, ptr %25, align 8, !tbaa !77
  %27 = icmp ne ptr %26, null
  br i1 %27, label %35, label %28

28:                                               ; preds = %23
  %29 = load ptr, ptr %8, align 8, !tbaa !37
  %30 = getelementptr inbounds nuw %struct.hwloc_obj, ptr %29, i32 0, i32 27
  %31 = load ptr, ptr %30, align 8, !tbaa !76
  %32 = call noalias ptr @hwloc_bitmap_dup(ptr noundef %31)
  %33 = load ptr, ptr %8, align 8, !tbaa !37
  %34 = getelementptr inbounds nuw %struct.hwloc_obj, ptr %33, i32 0, i32 28
  store ptr %32, ptr %34, align 8, !tbaa !77
  br label %46

35:                                               ; preds = %23
  %36 = load ptr, ptr %8, align 8, !tbaa !37
  %37 = getelementptr inbounds nuw %struct.hwloc_obj, ptr %36, i32 0, i32 27
  %38 = load ptr, ptr %37, align 8, !tbaa !76
  %39 = load ptr, ptr %8, align 8, !tbaa !37
  %40 = getelementptr inbounds nuw %struct.hwloc_obj, ptr %39, i32 0, i32 28
  %41 = load ptr, ptr %40, align 8, !tbaa !77
  %42 = call i32 @hwloc_bitmap_isincluded(ptr noundef %38, ptr noundef %41) #15
  %43 = icmp ne i32 %42, 0
  br i1 %43, label %45, label %44

44:                                               ; preds = %35
  store ptr null, ptr %5, align 8
  store i32 1, ptr %11, align 4
  br label %95

45:                                               ; preds = %35
  br label %46

46:                                               ; preds = %45, %28
  %47 = load ptr, ptr %6, align 8, !tbaa !3
  %48 = load ptr, ptr %7, align 8, !tbaa !37
  %49 = load ptr, ptr %8, align 8, !tbaa !37
  %50 = load ptr, ptr %9, align 8, !tbaa !34
  %51 = call ptr @hwloc___attach_memory_object_by_nodeset(ptr noundef %47, ptr noundef %48, ptr noundef %49, ptr noundef %50)
  store ptr %51, ptr %10, align 8, !tbaa !37
  %52 = load ptr, ptr %10, align 8, !tbaa !37
  %53 = load ptr, ptr %8, align 8, !tbaa !37
  %54 = icmp eq ptr %52, %53
  br i1 %54, label %55, label %87

55:                                               ; preds = %46
  %56 = load ptr, ptr %10, align 8, !tbaa !37
  %57 = getelementptr inbounds nuw %struct.hwloc_obj, ptr %56, i32 0, i32 0
  %58 = load i32, ptr %57, align 8, !tbaa !46
  %59 = icmp eq i32 %58, 14
  br i1 %59, label %60, label %87

60:                                               ; preds = %55
  %61 = load ptr, ptr %6, align 8, !tbaa !3
  %62 = getelementptr inbounds nuw %struct.hwloc_topology, ptr %61, i32 0, i32 4
  %63 = load ptr, ptr %62, align 8, !tbaa !51
  %64 = getelementptr inbounds ptr, ptr %63, i64 0
  %65 = load ptr, ptr %64, align 8, !tbaa !52
  %66 = getelementptr inbounds ptr, ptr %65, i64 0
  %67 = load ptr, ptr %66, align 8, !tbaa !37
  %68 = getelementptr inbounds nuw %struct.hwloc_obj, ptr %67, i32 0, i32 27
  %69 = load ptr, ptr %68, align 8, !tbaa !76
  %70 = load ptr, ptr %8, align 8, !tbaa !37
  %71 = getelementptr inbounds nuw %struct.hwloc_obj, ptr %70, i32 0, i32 2
  %72 = load i32, ptr %71, align 8, !tbaa !47
  %73 = call i32 @hwloc_bitmap_set(ptr noundef %69, i32 noundef %72)
  %74 = load ptr, ptr %6, align 8, !tbaa !3
  %75 = getelementptr inbounds nuw %struct.hwloc_topology, ptr %74, i32 0, i32 4
  %76 = load ptr, ptr %75, align 8, !tbaa !51
  %77 = getelementptr inbounds ptr, ptr %76, i64 0
  %78 = load ptr, ptr %77, align 8, !tbaa !52
  %79 = getelementptr inbounds ptr, ptr %78, i64 0
  %80 = load ptr, ptr %79, align 8, !tbaa !37
  %81 = getelementptr inbounds nuw %struct.hwloc_obj, ptr %80, i32 0, i32 28
  %82 = load ptr, ptr %81, align 8, !tbaa !77
  %83 = load ptr, ptr %8, align 8, !tbaa !37
  %84 = getelementptr inbounds nuw %struct.hwloc_obj, ptr %83, i32 0, i32 2
  %85 = load i32, ptr %84, align 8, !tbaa !47
  %86 = call i32 @hwloc_bitmap_set(ptr noundef %82, i32 noundef %85)
  br label %87

87:                                               ; preds = %60, %55, %46
  %88 = load ptr, ptr %10, align 8, !tbaa !37
  %89 = load ptr, ptr %8, align 8, !tbaa !37
  %90 = icmp ne ptr %88, %89
  br i1 %90, label %91, label %93

91:                                               ; preds = %87
  %92 = load ptr, ptr %8, align 8, !tbaa !37
  call void @hwloc_free_unlinked_object(ptr noundef %92)
  br label %93

93:                                               ; preds = %91, %87
  %94 = load ptr, ptr %10, align 8, !tbaa !37
  store ptr %94, ptr %5, align 8
  store i32 1, ptr %11, align 4
  br label %95

95:                                               ; preds = %93, %44, %22
  call void @llvm.lifetime.end.p0(i64 8, ptr %10) #14
  %96 = load ptr, ptr %5, align 8
  ret ptr %96
}