; Function Attrs: nounwind uwtable
define hidden noundef ptr @hwloc__attach_memory_object(ptr noundef captures(none) %0, ptr noundef %1, ptr noundef %2, ptr noundef %3) local_unnamed_addr #5 {
  %5 = getelementptr inbounds nuw i8, ptr %2, i64 200
  %6 = load ptr, ptr %5, align 8, !tbaa !83
  %.not = icmp eq ptr %6, null
  br i1 %.not, label %.thread, label %7

7:                                                ; preds = %4
  %8 = tail call i32 @hwloc_bitmap_iszero(ptr noundef nonnull %6) #36
  %.not27 = icmp eq i32 %8, 0
  br i1 %.not27, label %9, label %.thread

9:                                                ; preds = %7
  %10 = getelementptr inbounds nuw i8, ptr %2, i64 208
  %11 = load ptr, ptr %10, align 8, !tbaa !84
  %.not28 = icmp eq ptr %11, null
  br i1 %.not28, label %12, label %14

12:                                               ; preds = %9
  %13 = tail call noalias ptr @hwloc_bitmap_dup(ptr noundef nonnull %6) #34
  store ptr %13, ptr %10, align 8, !tbaa !84
  %.pre = load ptr, ptr %5, align 8, !tbaa !83
  br label %16

14:                                               ; preds = %9
  %15 = tail call i32 @hwloc_bitmap_isincluded(ptr noundef nonnull %6, ptr noundef nonnull %11) #36
  %.not29 = icmp eq i32 %15, 0
  br i1 %.not29, label %.thread, label %16

16:                                               ; preds = %14, %12
  %17 = phi ptr [ %6, %14 ], [ %.pre, %12 ]
  %18 = tail call i32 @hwloc_bitmap_first(ptr noundef %17) #36
  %19 = getelementptr inbounds nuw i8, ptr %1, i64 144
  %20 = load ptr, ptr %19, align 8, !tbaa !50
  %.not8590.i = icmp eq ptr %20, null
  br i1 %.not8590.i, label %tailrecurse._crit_edge.i, label %.lr.ph.lr.ph.i

.lr.ph.lr.ph.i:                                   ; preds = %16
  %21 = getelementptr inbounds nuw i8, ptr %2, i64 40
  br label %.lr.ph.i

.lr.ph.i:                                         ; preds = %tailrecurse.backedge.i, %.lr.ph.lr.ph.i
  %22 = phi ptr [ %20, %.lr.ph.lr.ph.i ], [ %42, %tailrecurse.backedge.i ]
  %23 = phi ptr [ %19, %.lr.ph.lr.ph.i ], [ %41, %tailrecurse.backedge.i ]
  %.tr7091.i = phi ptr [ %1, %.lr.ph.lr.ph.i ], [ %25, %tailrecurse.backedge.i ]
  br label %24

24:                                               ; preds = %63, %.lr.ph.i
  %25 = phi ptr [ %22, %.lr.ph.i ], [ %65, %63 ]
  %.06086.i = phi ptr [ %23, %.lr.ph.i ], [ %64, %63 ]
  %26 = getelementptr inbounds nuw i8, ptr %25, i64 200
  %27 = load ptr, ptr %26, align 8, !tbaa !83
  %28 = tail call i32 @hwloc_bitmap_first(ptr noundef %27) #36
  %29 = icmp ult i32 %18, %28
  br i1 %29, label %30, label %33

30:                                               ; preds = %24
  %31 = getelementptr inbounds nuw i8, ptr %2, i64 88
  store ptr %25, ptr %31, align 8, !tbaa !56
  store ptr %2, ptr %.06086.i, align 8, !tbaa !50
  %32 = getelementptr inbounds nuw i8, ptr %2, i64 144
  store ptr null, ptr %32, align 8, !tbaa !57
  br label %hwloc___attach_memory_object_by_nodeset.exit.thread

33:                                               ; preds = %24
  %34 = icmp eq i32 %18, %28
  br i1 %34, label %35, label %63

35:                                               ; preds = %33
  %36 = load i32, ptr %2, align 8, !tbaa !35
  %37 = icmp eq i32 %36, 14
  %38 = load i32, ptr %25, align 8, !tbaa !35
  br i1 %37, label %39, label %44

39:                                               ; preds = %35
  %40 = icmp eq i32 %38, 14
  br i1 %40, label %43, label %tailrecurse.backedge.i

tailrecurse.backedge.i:                           ; preds = %55, %39
  %41 = getelementptr inbounds nuw i8, ptr %25, i64 144
  %42 = load ptr, ptr %41, align 8, !tbaa !50
  %.not85.i = icmp eq ptr %42, null
  br i1 %.not85.i, label %tailrecurse._crit_edge.i, label %.lr.ph.i

43:                                               ; preds = %39
  tail call fastcc void @report_insert_error(ptr noundef nonnull %2, ptr noundef %25, ptr noundef nonnull @.str.20, ptr noundef %3)
  br label %hwloc___attach_memory_object_by_nodeset.exit

44:                                               ; preds = %35
  %45 = icmp eq i32 %38, 15
  br i1 %45, label %46, label %57

46:                                               ; preds = %44
  %47 = getelementptr inbounds nuw i8, ptr %25, i64 40
  %48 = load ptr, ptr %47, align 8, !tbaa !44
  %49 = getelementptr inbounds nuw i8, ptr %48, i64 8
  %50 = load i32, ptr %49, align 8, !tbaa !53
  %51 = load ptr, ptr %21, align 8, !tbaa !44
  %52 = getelementptr inbounds nuw i8, ptr %51, i64 8
  %53 = load i32, ptr %52, align 8, !tbaa !53
  %54 = icmp eq i32 %50, %53
  br i1 %54, label %hwloc___attach_memory_object_by_nodeset.exit, label %55

55:                                               ; preds = %46
  %56 = icmp ugt i32 %50, %53
  br i1 %56, label %tailrecurse.backedge.i, label %57

57:                                               ; preds = %55, %44
  %58 = getelementptr inbounds nuw i8, ptr %25, i64 88
  %59 = load ptr, ptr %58, align 8, !tbaa !56
  %60 = getelementptr inbounds nuw i8, ptr %2, i64 88
  store ptr %59, ptr %60, align 8, !tbaa !56
  store ptr null, ptr %58, align 8, !tbaa !56
  %61 = getelementptr inbounds nuw i8, ptr %2, i64 144
  store ptr %25, ptr %61, align 8, !tbaa !57
  %62 = getelementptr inbounds nuw i8, ptr %25, i64 72
  store ptr %2, ptr %62, align 8, !tbaa !52
  store ptr %2, ptr %.06086.i, align 8, !tbaa !50
  br label %hwloc___attach_memory_object_by_nodeset.exit.thread

63:                                               ; preds = %33
  %64 = getelementptr inbounds nuw i8, ptr %25, i64 88
  %65 = load ptr, ptr %64, align 8, !tbaa !50
  %.not.i = icmp eq ptr %65, null
  br i1 %.not.i, label %tailrecurse._crit_edge.i, label %24, !llvm.loop !144

tailrecurse._crit_edge.i:                         ; preds = %tailrecurse.backedge.i, %63, %16
  %.tr70.lcssa.i = phi ptr [ %1, %16 ], [ %.tr7091.i, %63 ], [ %25, %tailrecurse.backedge.i ]
  %.060.lcssa.i = phi ptr [ %19, %16 ], [ %64, %63 ], [ %41, %tailrecurse.backedge.i ]
  %66 = getelementptr inbounds nuw i8, ptr %2, i64 88
  store ptr null, ptr %66, align 8, !tbaa !56
  store ptr %2, ptr %.060.lcssa.i, align 8, !tbaa !50
  %67 = getelementptr inbounds nuw i8, ptr %2, i64 144
  store ptr null, ptr %67, align 8, !tbaa !57
  br label %hwloc___attach_memory_object_by_nodeset.exit.thread

hwloc___attach_memory_object_by_nodeset.exit.thread: ; preds = %30, %57, %tailrecurse._crit_edge.i
  %.tr7091.i.lcssa.sink = phi ptr [ %.tr7091.i, %30 ], [ %.tr7091.i, %57 ], [ %.tr70.lcssa.i, %tailrecurse._crit_edge.i ]
  %68 = getelementptr inbounds nuw i8, ptr %2, i64 72
  store ptr %.tr7091.i.lcssa.sink, ptr %68, align 8, !tbaa !52
  %69 = getelementptr inbounds nuw i8, ptr %0, i64 208
  store i64 1, ptr %69, align 8, !tbaa !60
  %70 = load i32, ptr %2, align 8, !tbaa !35
  %71 = icmp eq i32 %70, 14
  br i1 %71, label %72, label %.thread

72:                                               ; preds = %hwloc___attach_memory_object_by_nodeset.exit.thread
  %73 = getelementptr inbounds nuw i8, ptr %0, i64 24
  %74 = load ptr, ptr %73, align 8, !tbaa !48
  %75 = load ptr, ptr %74, align 8, !tbaa !49
  %76 = load ptr, ptr %75, align 8, !tbaa !50
  %77 = getelementptr inbounds nuw i8, ptr %76, i64 200
  %78 = load ptr, ptr %77, align 8, !tbaa !83
  %79 = getelementptr inbounds nuw i8, ptr %2, i64 16
  %80 = load i32, ptr %79, align 8, !tbaa !41
  %81 = tail call i32 @hwloc_bitmap_set(ptr noundef %78, i32 noundef %80) #34
  %82 = load ptr, ptr %73, align 8, !tbaa !48
  %83 = load ptr, ptr %82, align 8, !tbaa !49
  %84 = load ptr, ptr %83, align 8, !tbaa !50
  %85 = getelementptr inbounds nuw i8, ptr %84, i64 208
  %86 = load ptr, ptr %85, align 8, !tbaa !84
  %87 = load i32, ptr %79, align 8, !tbaa !41
  %88 = tail call i32 @hwloc_bitmap_set(ptr noundef %86, i32 noundef %87) #34
  br label %.thread

hwloc___attach_memory_object_by_nodeset.exit:     ; preds = %46, %43
  tail call fastcc void @hwloc__free_object_contents(ptr noundef nonnull %2)
  tail call void @free(ptr noundef nonnull %2) #34
  br label %.thread

.thread:                                          ; preds = %hwloc___attach_memory_object_by_nodeset.exit.thread, %72, %hwloc___attach_memory_object_by_nodeset.exit, %14, %4, %7
  %.0 = phi ptr [ null, %7 ], [ null, %4 ], [ null, %14 ], [ null, %hwloc___attach_memory_object_by_nodeset.exit ], [ %2, %72 ], [ %2, %hwloc___attach_memory_object_by_nodeset.exit.thread ]
  ret ptr %.0
}